target datalayout = "e-m:e-p270:32:32-p271:32:32-p272:64:64-i64:64-i128:128-f80:128-n8:16:32:64-S128"
target triple = "x86_64-pc-linux-gnu"

%"struct.ofbx::DataView" = type <{ ptr, ptr, i8, [7 x i8] }>
%"struct.ofbx::Element" = type { %"struct.ofbx::IElement", %"struct.ofbx::DataView", ptr, ptr, ptr }
%"struct.ofbx::IElement" = type { ptr }

; Function Attrs: mustprogress uwtable
define internal void @_ZN4ofbxL13deleteElementEPNS_7ElementE(ptr noundef %0) #3 {
  %2 = alloca ptr, align 8
  %3 = alloca ptr, align 8
  %4 = alloca ptr, align 8
  store ptr %0, ptr %2, align 8
  %5 = load ptr, ptr %2, align 8
  %6 = icmp ne ptr %5, null
  br i1 %6, label %8, label %7

7:                                                ; preds = %1
  br label %34

8:                                                ; preds = %1
  %9 = load ptr, ptr %2, align 8
  store ptr %9, ptr %3, align 8
  br label %10

10:                                               ; preds = %31, %8
  %11 = load ptr, ptr %3, align 8
  %12 = getelementptr inbounds %"struct.ofbx::Element", ptr %11, i32 0, i32 3
  %13 = load ptr, ptr %12, align 8
  store ptr %13, ptr %4, align 8
  %14 = load ptr, ptr %3, align 8
  %15 = getelementptr inbounds %"struct.ofbx::Element", ptr %14, i32 0, i32 4
  %16 = load ptr, ptr %15, align 8
  %17 = icmp eq ptr %16, null
  br i1 %17, label %22, label %18

18:                                               ; preds = %10
  %19 = load ptr, ptr %16, align 8
  %20 = getelementptr inbounds ptr, ptr %19, i64 1
  %21 = load ptr, ptr %20, align 8
  call void %21(ptr noundef nonnull align 8 dereferenceable(48) %16) #13
  br label %22

22:                                               ; preds = %18, %10
  %23 = load ptr, ptr %3, align 8
  %24 = getelementptr inbounds %"struct.ofbx::Element", ptr %23, i32 0, i32 2
  %25 = load ptr, ptr %24, align 8
  call void @_ZN4ofbxL13deleteElementEPNS_7ElementE(ptr noundef %25)
  %26 = load ptr, ptr %3, align 8
  %27 = icmp eq ptr %26, null
  br i1 %27, label %29, label %28

28:                                               ; preds = %22
  call void @_ZdlPv(ptr noundef %26) #17
  br label %29

29:                                               ; preds = %28, %22
  %30 = load ptr, ptr %4, align 8
  store ptr %30, ptr %3, align 8
  br label %31

31:                                               ; preds = %29
  %32 = load ptr, ptr %3, align 8
  %33 = icmp ne ptr %32, null
  br i1 %33, label %10, label %34, !llvm.loop !32

34:                                               ; preds = %31, %7
  ret void
}