; Function Attrs: mustprogress uwtable
define internal fastcc void @_ZN4ofbxL13deleteElementEPNS_7ElementE(ptr noundef %0) unnamed_addr #8 {
  %.not = icmp eq ptr %0, null
  br i1 %.not, label %.loopexit, label %.preheader

.preheader:                                       ; preds = %1, %11
  %.0 = phi ptr [ %3, %11 ], [ %0, %1 ]
  %2 = getelementptr inbounds i8, ptr %.0, i64 40
  %3 = load ptr, ptr %2, align 8
  %4 = getelementptr inbounds i8, ptr %.0, i64 48
  %5 = load ptr, ptr %4, align 8
  %6 = icmp eq ptr %5, null
  br i1 %6, label %11, label %7

7:                                                ; preds = %.preheader
  %8 = load ptr, ptr %5, align 8
  %9 = getelementptr inbounds i8, ptr %8, i64 8
  %10 = load ptr, ptr %9, align 8
  tail call void %10(ptr noundef nonnull align 8 dereferenceable(48) %5) #29
  br label %11

11:                                               ; preds = %7, %.preheader
  %12 = getelementptr inbounds i8, ptr %.0, i64 32
  %13 = load ptr, ptr %12, align 8
  tail call fastcc void @_ZN4ofbxL13deleteElementEPNS_7ElementE(ptr noundef %13)
  tail call void @_ZdlPv(ptr noundef nonnull %.0) #33
  %.not11 = icmp eq ptr %3, null
  br i1 %.not11, label %.loopexit, label %.preheader, !llvm.loop !196

.loopexit:                                        ; preds = %11, %1
  ret void
}